; Function Attrs: nounwind uwtable
define ptr @l_Array_foldlMUnsafe_fold___at_Lean_PrettyPrinter_Formatter_concat___spec__1(ptr noundef readonly captures(none) %0, i64 noundef %1, i64 noundef %2, ptr noundef %3) local_unnamed_addr #0 {
  %.not37 = icmp eq i64 %1, %2
  br i1 %.not37, label %._crit_edge, label %.lr.ph

.lr.ph:                                           ; preds = %4
  %5 = getelementptr inbounds nuw i8, ptr %0, i64 24
  br label %6

6:                                                ; preds = %.lr.ph, %lean_dec.exit
  %.02239 = phi i64 [ %1, %.lr.ph ], [ %18, %lean_dec.exit ]
  %.02438 = phi ptr [ %3, %.lr.ph ], [ %.226, %lean_dec.exit ]
  %7 = getelementptr inbounds nuw [0 x ptr], ptr %5, i64 0, i64 %.02239
  %8 = load ptr, ptr %7, align 8, !tbaa !4
  %9 = ptrtoint ptr %8 to i64
  %10 = and i64 %9, 1
  %.not.i27 = icmp eq i64 %10, 0
  br i1 %.not.i27, label %11, label %lean_array_uget.exit

11:                                               ; preds = %6
  %.val.i.i = load i32, ptr %8, align 4, !tbaa !8
  %12 = icmp sgt i32 %.val.i.i, 0
  br i1 %12, label %13, label %15, !prof !11

13:                                               ; preds = %11
  %14 = add nuw i32 %.val.i.i, 1
  store i32 %14, ptr %8, align 4, !tbaa !8
  br label %lean_array_uget.exit

15:                                               ; preds = %11
  %.not.i.i = icmp eq i32 %.val.i.i, 0
  br i1 %.not.i.i, label %lean_array_uget.exit, label %16

16:                                               ; preds = %15
  tail call void @lean_inc_ref_cold(ptr noundef nonnull %8) #6
  br label %lean_array_uget.exit

lean_array_uget.exit:                             ; preds = %6, %13, %15, %16
  %17 = tail call zeroext i8 @l_Std_Format_isNil(ptr noundef %.02438) #6
  %18 = add i64 %.02239, 1
  %19 = icmp eq i8 %17, 0
  br i1 %19, label %20, label %27

20:                                               ; preds = %lean_array_uget.exit
  tail call void @lean_inc_heartbeat() #6
  %21 = tail call noalias ptr @mi_malloc_small(i64 noundef 24) #6
  %22 = icmp eq ptr %21, null
  br i1 %22, label %23, label %lean_alloc_ctor.exit

23:                                               ; preds = %20
  tail call void @lean_internal_panic_out_of_memory() #7
  unreachable

lean_alloc_ctor.exit:                             ; preds = %20
  %24 = getelementptr inbounds nuw i8, ptr %21, i64 4
  store i32 1, ptr %21, align 4, !tbaa !8
  store i32 84017176, ptr %24, align 4
  %25 = getelementptr inbounds nuw i8, ptr %21, i64 8
  store ptr %8, ptr %25, align 8, !tbaa !4
  %26 = getelementptr inbounds nuw i8, ptr %21, i64 16
  store ptr %.02438, ptr %26, align 8, !tbaa !4
  br label %lean_dec.exit

27:                                               ; preds = %lean_array_uget.exit
  %28 = ptrtoint ptr %.02438 to i64
  %29 = and i64 %28, 1
  %.not35 = icmp eq i64 %29, 0
  br i1 %.not35, label %30, label %lean_dec.exit

30:                                               ; preds = %27
  %31 = load i32, ptr %.02438, align 4, !tbaa !8
  %32 = icmp sgt i32 %31, 1
  br i1 %32, label %33, label %35, !prof !11

33:                                               ; preds = %30
  %34 = add nsw i32 %31, -1
  store i32 %34, ptr %.02438, align 4, !tbaa !8
  br label %lean_dec.exit

35:                                               ; preds = %30
  %.not.i = icmp eq i32 %31, 0
  br i1 %.not.i, label %lean_dec.exit, label %36

36:                                               ; preds = %35
  tail call void @lean_dec_ref_cold(ptr noundef nonnull %.02438) #6
  br label %lean_dec.exit

lean_dec.exit:                                    ; preds = %27, %33, %35, %36, %lean_alloc_ctor.exit
  %.226 = phi ptr [ %21, %lean_alloc_ctor.exit ], [ %8, %36 ], [ %8, %35 ], [ %8, %33 ], [ %8, %27 ]
  %.not = icmp eq i64 %18, %2
  br i1 %.not, label %._crit_edge, label %6

._crit_edge:                                      ; preds = %lean_dec.exit, %4
  %.024.lcssa = phi ptr [ %3, %4 ], [ %.226, %lean_dec.exit ]
  ret ptr %.024.lcssa
}